(isrc.Lexer.Lexer
Lexer
p0
(dp1
S'fsa'
p2
(isrc.FiniteAutomata.FiniteAutomata
LexerAutomata
p3
(dp4
S'terminal_token'
p5
NsS'max_repeat_handled'
p6
I100
sS'current_state'
p7
NsS'next_states'
p8
ccollections
OrderedDict
p9
((lp10
(lp11
I49
a(isrc.FiniteAutomata.FiniteAutomata
LexerAutomata
p12
(dp13
g5
S'Accept'
p14
sg6
I100
sg7
I49
sg8
g9
((lp15
(lp16
I49
ag12
aa(lp17
I50
a(isrc.FiniteAutomata.FiniteAutomata
LexerAutomata
p18
(dp19
g5
g14
sg6
I100
sg7
I50
sg8
g9
((lp20
(lp21
I49
ag12
aa(lp22
I50
ag18
aa(lp23
I51
a(isrc.FiniteAutomata.FiniteAutomata
LexerAutomata
p24
(dp25
g5
g14
sg6
I100
sg7
I51
sg8
g9
((lp26
(lp27
I49
ag12
aa(lp28
I50
ag18
aa(lp29
I51
ag24
aa(lp30
I52
a(isrc.FiniteAutomata.FiniteAutomata
LexerAutomata
p31
(dp32
g5
g14
sg6
I100
sg7
I52
sg8
g9
((lp33
(lp34
I49
ag12
aa(lp35
I50
ag18
aa(lp36
I51
ag24
aa(lp37
I52
ag31
aa(lp38
I53
a(isrc.FiniteAutomata.FiniteAutomata
LexerAutomata
p39
(dp40
g5
g14
sg6
I100
sg7
I53
sg8
g9
((lp41
(lp42
I49
ag12
aa(lp43
I50
ag18
aa(lp44
I51
ag24
aa(lp45
I52
ag31
aa(lp46
I53
ag39
aa(lp47
I54
a(isrc.FiniteAutomata.FiniteAutomata
LexerAutomata
p48
(dp49
g5
g14
sg6
I100
sg7
I54
sg8
g9
((lp50
(lp51
I49
ag12
aa(lp52
I50
ag18
aa(lp53
I51
ag24
aa(lp54
I52
ag31
aa(lp55
I53
ag39
aa(lp56
I54
ag48
aa(lp57
I55
a(isrc.FiniteAutomata.FiniteAutomata
LexerAutomata
p58
(dp59
g5
g14
sg6
I100
sg7
I55
sg8
g9
((lp60
(lp61
I49
ag12
aa(lp62
I50
ag18
aa(lp63
I51
ag24
aa(lp64
I52
ag31
aa(lp65
I53
ag39
aa(lp66
I54
ag48
aa(lp67
I55
ag58
aa(lp68
I56
a(isrc.FiniteAutomata.FiniteAutomata
LexerAutomata
p69
(dp70
g5
g14
sg6
I100
sg7
I56
sg8
g9
((lp71
(lp72
I49
ag12
aa(lp73
I50
ag18
aa(lp74
I51
ag24
aa(lp75
I52
ag31
aa(lp76
I53
ag39
aa(lp77
I54
ag48
aa(lp78
I55
ag58
aa(lp79
I56
ag69
aa(lp80
I57
a(isrc.FiniteAutomata.FiniteAutomata
LexerAutomata
p81
(dp82
g5
g14
sg6
I100
sg7
I57
sg8
g9
((lp83
(lp84
I49
ag12
aa(lp85
I50
ag18
aa(lp86
I51
ag24
aa(lp87
I52
ag31
aa(lp88
I53
ag39
aa(lp89
I54
ag48
aa(lp90
I55
ag58
aa(lp91
I56
ag69
aa(lp92
I57
ag81
aatp93
Rp94
sbaatp95
Rp96
sbaa(lp97
I57
ag81
aatp98
Rp99
sbaa(lp100
I56
ag69
aa(lp101
I57
ag81
aatp102
Rp103
sbaa(lp104
I55
ag58
aa(lp105
I56
ag69
aa(lp106
I57
ag81
aatp107
Rp108
sbaa(lp109
I54
ag48
aa(lp110
I55
ag58
aa(lp111
I56
ag69
aa(lp112
I57
ag81
aatp113
Rp114
sbaa(lp115
I53
ag39
aa(lp116
I54
ag48
aa(lp117
I55
ag58
aa(lp118
I56
ag69
aa(lp119
I57
ag81
aatp120
Rp121
sbaa(lp122
I52
ag31
aa(lp123
I53
ag39
aa(lp124
I54
ag48
aa(lp125
I55
ag58
aa(lp126
I56
ag69
aa(lp127
I57
ag81
aatp128
Rp129
sbaa(lp130
I51
ag24
aa(lp131
I52
ag31
aa(lp132
I53
ag39
aa(lp133
I54
ag48
aa(lp134
I55
ag58
aa(lp135
I56
ag69
aa(lp136
I57
ag81
aatp137
Rp138
sbaa(lp139
I50
ag18
aa(lp140
I51
ag24
aa(lp141
I52
ag31
aa(lp142
I53
ag39
aa(lp143
I54
ag48
aa(lp144
I55
ag58
aa(lp145
I56
ag69
aa(lp146
I57
ag81
aatp147
Rp148
sbsS'buffer'
p149
S'56'
p150
sg7
g48
sS'pos'
p151
I2
sS'rules'
p152
(lp153
(S'[1-9]+'
p154
g14
tp155
asS'line_rule'
p156
NsS'lineno'
p157
I1
sb.